target datalayout = "e-m:e-p270:32:32-p271:32:32-p272:64:64-i64:64-i128:128-f80:128-n8:16:32:64-S128"
target triple = "x86_64-pc-linux-gnu"

%struct.FAKE_RAND = type { ptr, i32, ptr, ptr }

; Function Attrs: nounwind uwtable
define internal i32 @fake_rand_generate(ptr noundef %0, ptr noundef %1, i64 noundef %2, i32 noundef %3, i32 noundef %4, ptr noundef %5, i64 noundef %6) #0 {
  %8 = alloca i32, align 4
  %9 = alloca ptr, align 8
  %10 = alloca ptr, align 8
  %11 = alloca i64, align 8
  %12 = alloca i32, align 4
  %13 = alloca i32, align 4
  %14 = alloca ptr, align 8
  %15 = alloca i64, align 8
  %16 = alloca ptr, align 8
  %17 = alloca i64, align 8
  %18 = alloca i32, align 4
  %19 = alloca i32, align 4
  store ptr %0, ptr %9, align 8, !tbaa !16
  store ptr %1, ptr %10, align 8, !tbaa !19
  store i64 %2, ptr %11, align 8, !tbaa !34
  store i32 %3, ptr %12, align 4, !tbaa !30
  store i32 %4, ptr %13, align 4, !tbaa !30
  store ptr %5, ptr %14, align 8, !tbaa !19
  store i64 %6, ptr %15, align 8, !tbaa !34
  call void @llvm.lifetime.start.p0(i64 8, ptr %16) #4
  %20 = load ptr, ptr %9, align 8, !tbaa !16
  store ptr %20, ptr %16, align 8, !tbaa !16
  call void @llvm.lifetime.start.p0(i64 8, ptr %17) #4
  call void @llvm.lifetime.start.p0(i64 4, ptr %18) #4
  %21 = load ptr, ptr %16, align 8, !tbaa !16
  %22 = getelementptr inbounds nuw %struct.FAKE_RAND, ptr %21, i32 0, i32 0
  %23 = load ptr, ptr %22, align 8, !tbaa !29
  %24 = icmp ne ptr %23, null
  br i1 %24, label %25, label %38

25:                                               ; preds = %7
  %26 = load ptr, ptr %16, align 8, !tbaa !16
  %27 = getelementptr inbounds nuw %struct.FAKE_RAND, ptr %26, i32 0, i32 0
  %28 = load ptr, ptr %27, align 8, !tbaa !29
  %29 = load ptr, ptr %10, align 8, !tbaa !19
  %30 = load i64, ptr %11, align 8, !tbaa !34
  %31 = load ptr, ptr %16, align 8, !tbaa !16
  %32 = getelementptr inbounds nuw %struct.FAKE_RAND, ptr %31, i32 0, i32 2
  %33 = load ptr, ptr %32, align 8, !tbaa !25
  %34 = load ptr, ptr %16, align 8, !tbaa !16
  %35 = getelementptr inbounds nuw %struct.FAKE_RAND, ptr %34, i32 0, i32 3
  %36 = load ptr, ptr %35, align 8, !tbaa !28
  %37 = call i32 %28(ptr noundef %29, i64 noundef %30, ptr noundef %33, ptr noundef %36)
  store i32 %37, ptr %8, align 4
  store i32 1, ptr %19, align 4
  br label %60

38:                                               ; preds = %7
  br label %39

39:                                               ; preds = %49, %38
  %40 = load i64, ptr %11, align 8, !tbaa !34
  %41 = icmp ugt i64 %40, 0
  br i1 %41, label %42, label %59

42:                                               ; preds = %39
  %43 = call i32 @test_random()
  store i32 %43, ptr %18, align 4, !tbaa !30
  %44 = load i64, ptr %11, align 8, !tbaa !34
  %45 = icmp ult i64 %44, 4
  br i1 %45, label %46, label %48

46:                                               ; preds = %42
  %47 = load i64, ptr %11, align 8, !tbaa !34
  br label %49

48:                                               ; preds = %42
  br label %49

49:                                               ; preds = %48, %46
  %50 = phi i64 [ %47, %46 ], [ 4, %48 ]
  store i64 %50, ptr %17, align 8, !tbaa !34
  %51 = load ptr, ptr %10, align 8, !tbaa !19
  %52 = load i64, ptr %17, align 8, !tbaa !34
  call void @llvm.memcpy.p0.p0.i64(ptr align 1 %51, ptr align 4 %18, i64 %52, i1 false)
  %53 = load i64, ptr %17, align 8, !tbaa !34
  %54 = load ptr, ptr %10, align 8, !tbaa !19
  %55 = getelementptr inbounds nuw i8, ptr %54, i64 %53
  store ptr %55, ptr %10, align 8, !tbaa !19
  %56 = load i64, ptr %17, align 8, !tbaa !34
  %57 = load i64, ptr %11, align 8, !tbaa !34
  %58 = sub i64 %57, %56
  store i64 %58, ptr %11, align 8, !tbaa !34
  br label %39, !llvm.loop !38

59:                                               ; preds = %39
  store i32 1, ptr %8, align 4
  store i32 1, ptr %19, align 4
  br label %60

60:                                               ; preds = %59, %25
  call void @llvm.lifetime.end.p0(i64 4, ptr %18) #4
  call void @llvm.lifetime.end.p0(i64 8, ptr %17) #4
  call void @llvm.lifetime.end.p0(i64 8, ptr %16) #4
  %61 = load i32, ptr %8, align 4
  ret i32 %61
}