; Function Attrs: nounwind uwtable
define internal i32 @fake_rand_generate(ptr noundef readonly captures(none) %0, ptr noundef %1, i64 noundef %2, i32 %3, i32 %4, ptr readnone captures(none) %5, i64 %6) #0 {
  %8 = alloca i32, align 4
  call void @llvm.lifetime.start.p0(i64 4, ptr nonnull %8)
  %9 = load ptr, ptr %0, align 8, !tbaa !19
  %.not = icmp eq ptr %9, null
  br i1 %.not, label %.preheader, label %10

.preheader:                                       ; preds = %7
  %.not1920 = icmp eq i64 %2, 0
  br i1 %.not1920, label %.loopexit, label %.lr.ph

10:                                               ; preds = %7
  %11 = getelementptr inbounds nuw i8, ptr %0, i64 16
  %12 = load ptr, ptr %11, align 8, !tbaa !11
  %13 = getelementptr inbounds nuw i8, ptr %0, i64 24
  %14 = load ptr, ptr %13, align 8, !tbaa !15
  %15 = tail call i32 %9(ptr noundef %1, i64 noundef %2, ptr noundef %12, ptr noundef %14) #8
  br label %.loopexit

.lr.ph:                                           ; preds = %.preheader, %.lr.ph
  %.01622 = phi ptr [ %18, %.lr.ph ], [ %1, %.preheader ]
  %.01721 = phi i64 [ %19, %.lr.ph ], [ %2, %.preheader ]
  %16 = tail call i32 @test_random() #8
  store i32 %16, ptr %8, align 4, !tbaa !20
  %17 = tail call i64 @llvm.umin.i64(i64 %.01721, i64 4)
  call void @llvm.memcpy.p0.p0.i64(ptr noundef nonnull align 1 dereferenceable(1) %.01622, ptr noundef nonnull align 4 dereferenceable(1) %8, i64 %17, i1 false)
  %18 = getelementptr inbounds nuw i8, ptr %.01622, i64 %17
  %19 = sub i64 %.01721, %17
  %.not19 = icmp eq i64 %19, 0
  br i1 %.not19, label %.loopexit, label %.lr.ph, !llvm.loop !22

.loopexit:                                        ; preds = %.lr.ph, %.preheader, %10
  %.0 = phi i32 [ %15, %10 ], [ 1, %.preheader ], [ 1, %.lr.ph ]
  call void @llvm.lifetime.end.p0(i64 4, ptr nonnull %8)
  ret i32 %.0
}